target datalayout = "e-m:e-p270:32:32-p271:32:32-p272:64:64-i64:64-i128:128-f80:128-n8:16:32:64-S128"
target triple = "x86_64-pc-linux-gnu"

%struct.Vmem = type { ptr, i64, i64 }
%union.SourceSpan = type { i64 }
%struct.Expr_ = type { ptr, %union.SourceSpan, i16, %union.anon.61 }
%union.anon.61 = type { %struct.ExprAnySwitch }
%struct.ExprAnySwitch = type { i8, %union.anon.63 }
%union.anon.63 = type { %struct.anon.64 }
%struct.anon.64 = type { ptr, %union.SourceSpan, ptr }
%struct.Type_ = type { i32, ptr, ptr, ptr, %union.anon.86, ptr, ptr, %union.anon.88 }
%union.anon.86 = type { ptr }
%union.anon.88 = type { %struct.TypeFunction }
%struct.TypeFunction = type { ptr, ptr, ptr }
%struct.TypeInfo_ = type { i16, ptr, %union.SourceSpan, %union.anon.23 }
%union.anon.23 = type { %struct.anon.24 }
%struct.anon.24 = type { ptr, ptr }
%struct.ExprAccess = type { ptr, %union.anon.62 }
%union.anon.62 = type { ptr }
%struct.Decl_ = type { ptr, ptr, %union.SourceSpan, i64, %union.anon, i32, %union.anon.0, i64, ptr, ptr, ptr, %union.anon.1 }
%union.anon = type { ptr }
%union.anon.0 = type { i16 }
%union.anon.1 = type { %struct.FuncDecl }
%struct.FuncDecl = type { i32, [4 x i8], %struct.Signature_, i32, i32, %union.anon.8 }
%struct.Signature_ = type <{ %struct.CalleeAttributes, i16, i8, i32, i32, [4 x i8], ptr }>
%struct.CalleeAttributes = type { i8 }
%union.anon.8 = type { %struct.anon.9 }
%struct.anon.9 = type { i16, %union.anon.10 }
%union.anon.10 = type { ptr }
%struct.anon.2 = type { ptr, ptr, %union.anon.3 }
%union.anon.3 = type { %struct.BitStructDecl }
%struct.BitStructDecl = type { ptr, ptr, i8 }
%struct.StructDecl = type { i32, ptr, i32, i16 }

@.str.33 = private unnamed_addr constant [36 x i8] c"FATAL ERROR %s -> in %s @ in %s:%d \00", align 1
@.str.34 = private unnamed_addr constant [22 x i8] c"Should be unreachable\00", align 1
@.str.35 = private unnamed_addr constant [110 x i8] c"generated/home/dtcxzyw/WorkSpace/Projects/compilers/llvm-opt-benchmark/bench/c3c/c3c/src/compiler/sema_expr.c\00", align 1
@type_info_arena = external global %struct.Vmem, align 8
@__func__.sema_expr_find_index_type_or_overload_for_subscript = private unnamed_addr constant [52 x i8] c"sema_expr_find_index_type_or_overload_for_subscript\00", align 1

; Function Attrs: nounwind uwtable
define dso_local ptr @expr_access_inline_member(ptr noundef %0, ptr noundef %1) #0 {
  %3 = alloca ptr, align 8
  %4 = alloca ptr, align 8
  %5 = alloca ptr, align 8
  store ptr %0, ptr %3, align 8
  store ptr %1, ptr %4, align 8
  %6 = load ptr, ptr %3, align 8
  %7 = getelementptr inbounds %struct.Expr_, ptr %6, i32 0, i32 1
  %8 = getelementptr inbounds %union.SourceSpan, ptr %7, i32 0, i32 0
  %9 = load i64, ptr %8, align 8
  %10 = call ptr @expr_new(i32 noundef 1, i64 %9)
  store ptr %10, ptr %5, align 8
  %11 = load ptr, ptr %5, align 8
  %12 = getelementptr inbounds %struct.Expr_, ptr %11, i32 0, i32 2
  %13 = load i16, ptr %12, align 8
  %14 = and i16 %13, -3841
  %15 = or i16 %14, 512
  store i16 %15, ptr %12, align 8
  %16 = load ptr, ptr %3, align 8
  %17 = load ptr, ptr %5, align 8
  %18 = getelementptr inbounds %struct.Expr_, ptr %17, i32 0, i32 3
  %19 = getelementptr inbounds %struct.ExprAccess, ptr %18, i32 0, i32 0
  store ptr %16, ptr %19, align 8
  %20 = load ptr, ptr %4, align 8
  %21 = getelementptr inbounds %struct.Decl_, ptr %20, i32 0, i32 11
  %22 = getelementptr inbounds %struct.anon.2, ptr %21, i32 0, i32 2
  %23 = getelementptr inbounds %struct.StructDecl, ptr %22, i32 0, i32 1
  %24 = load ptr, ptr %23, align 8
  %25 = getelementptr inbounds ptr, ptr %24, i64 0
  %26 = load ptr, ptr %25, align 8
  %27 = load ptr, ptr %5, align 8
  %28 = getelementptr inbounds %struct.Expr_, ptr %27, i32 0, i32 3
  %29 = getelementptr inbounds %struct.ExprAccess, ptr %28, i32 0, i32 1
  store ptr %26, ptr %29, align 8
  %30 = load ptr, ptr %5, align 8
  %31 = getelementptr inbounds %struct.Expr_, ptr %30, i32 0, i32 3
  %32 = getelementptr inbounds %struct.ExprAccess, ptr %31, i32 0, i32 1
  %33 = load ptr, ptr %32, align 8
  %34 = getelementptr inbounds %struct.Decl_, ptr %33, i32 0, i32 10
  %35 = load ptr, ptr %34, align 8
  %36 = load ptr, ptr %5, align 8
  %37 = getelementptr inbounds %struct.Expr_, ptr %36, i32 0, i32 0
  store ptr %35, ptr %37, align 8
  %38 = load ptr, ptr %5, align 8
  ret ptr %38
}

; Function Attrs: nounwind uwtable
define internal ptr @type_infoptr(i32 noundef %0) #0 {
  %2 = alloca i32, align 4
  store i32 %0, ptr %2, align 4
  %3 = load ptr, ptr @type_info_arena, align 8
  %4 = load i32, ptr %2, align 4
  %5 = zext i32 %4 to i64
  %6 = getelementptr inbounds %struct.TypeInfo_, ptr %3, i64 %5
  ret ptr %6
}

; Function Attrs: nounwind uwtable
define internal ptr @sema_expr_find_index_type_or_overload_for_subscript(ptr noundef %0, ptr noundef %1, i32 noundef %2, ptr noundef %3, ptr noundef %4) #0 {
  %6 = alloca ptr, align 8
  %7 = alloca i32, align 4
  %8 = alloca ptr, align 8
  %9 = alloca ptr, align 8
  %10 = alloca ptr, align 8
  %11 = alloca i32, align 4
  %12 = alloca ptr, align 8
  %13 = alloca ptr, align 8
  %14 = alloca ptr, align 8
  %15 = alloca ptr, align 8
  %16 = alloca ptr, align 8
  store ptr %0, ptr %9, align 8
  store ptr %1, ptr %10, align 8
  store i32 %2, ptr %11, align 4
  store ptr %3, ptr %12, align 8
  store ptr %4, ptr %13, align 8
  store ptr null, ptr %14, align 8
  %17 = load i32, ptr %11, align 4
  switch i32 %17, label %56 [
    i32 3, label %18
    i32 1, label %21
    i32 0, label %27
    i32 2, label %33
  ]

18:                                               ; preds = %5
  br label %19

19:                                               ; preds = %18
  call void (ptr, ...) @error_exit(ptr noundef @.str.33, ptr noundef @.str.34, ptr noundef @__func__.sema_expr_find_index_type_or_overload_for_subscript, ptr noundef @.str.35, i32 noundef 2515) #6
  unreachable

20:                                               ; No predecessors!
  br label %21

21:                                               ; preds = %20, %5
  %22 = load ptr, ptr %9, align 8
  %23 = load ptr, ptr %10, align 8
  %24 = getelementptr inbounds %struct.Expr_, ptr %23, i32 0, i32 0
  %25 = load ptr, ptr %24, align 8
  %26 = call ptr @sema_find_operator(ptr noundef %22, ptr noundef %25, i32 noundef 2)
  store ptr %26, ptr %14, align 8
  br label %56

27:                                               ; preds = %5
  %28 = load ptr, ptr %9, align 8
  %29 = load ptr, ptr %10, align 8
  %30 = getelementptr inbounds %struct.Expr_, ptr %29, i32 0, i32 0
  %31 = load ptr, ptr %30, align 8
  %32 = call ptr @sema_find_operator(ptr noundef %28, ptr noundef %31, i32 noundef 1)
  store ptr %32, ptr %14, align 8
  br label %56

33:                                               ; preds = %5
  %34 = load ptr, ptr %9, align 8
  %35 = load ptr, ptr %10, align 8
  %36 = getelementptr inbounds %struct.Expr_, ptr %35, i32 0, i32 0
  %37 = load ptr, ptr %36, align 8
  %38 = call ptr @sema_find_operator(ptr noundef %34, ptr noundef %37, i32 noundef 3)
  store ptr %38, ptr %14, align 8
  %39 = load ptr, ptr %14, align 8
  %40 = icmp ne ptr %39, null
  br i1 %40, label %41, label %55

41:                                               ; preds = %33
  %42 = load ptr, ptr %14, align 8
  %43 = load ptr, ptr %13, align 8
  store ptr %42, ptr %43, align 8
  %44 = load ptr, ptr %14, align 8
  %45 = getelementptr inbounds %struct.Decl_, ptr %44, i32 0, i32 11
  %46 = getelementptr inbounds %struct.FuncDecl, ptr %45, i32 0, i32 2
  %47 = getelementptr inbounds %struct.Signature_, ptr %46, i32 0, i32 6
  %48 = load ptr, ptr %47, align 8
  %49 = getelementptr inbounds ptr, ptr %48, i64 2
  %50 = load ptr, ptr %49, align 8
  %51 = getelementptr inbounds %struct.Decl_, ptr %50, i32 0, i32 10
  %52 = load ptr, ptr %51, align 8
  %53 = load ptr, ptr %12, align 8
  store ptr %52, ptr %53, align 8
  %54 = load ptr, ptr %10, align 8
  store ptr %54, ptr %8, align 8
  br label %126

55:                                               ; preds = %33
  br label %56

56:                                               ; preds = %55, %27, %21, %5
  %57 = load ptr, ptr %14, align 8
  %58 = icmp ne ptr %57, null
  br i1 %58, label %59, label %72

59:                                               ; preds = %56
  %60 = load ptr, ptr %14, align 8
  %61 = load ptr, ptr %13, align 8
  store ptr %60, ptr %61, align 8
  %62 = load ptr, ptr %14, align 8
  %63 = getelementptr inbounds %struct.Decl_, ptr %62, i32 0, i32 11
  %64 = getelementptr inbounds %struct.FuncDecl, ptr %63, i32 0, i32 2
  %65 = getelementptr inbounds %struct.Signature_, ptr %64, i32 0, i32 4
  %66 = load i32, ptr %65, align 8
  %67 = call ptr @type_infoptr(i32 noundef %66)
  %68 = getelementptr inbounds %struct.TypeInfo_, ptr %67, i32 0, i32 1
  %69 = load ptr, ptr %68, align 8
  %70 = load ptr, ptr %12, align 8
  store ptr %69, ptr %70, align 8
  %71 = load ptr, ptr %10, align 8
  store ptr %71, ptr %8, align 8
  br label %126

72:                                               ; preds = %56
  %73 = load ptr, ptr %10, align 8
  %74 = getelementptr inbounds %struct.Expr_, ptr %73, i32 0, i32 0
  %75 = load ptr, ptr %74, align 8
  %76 = call ptr @type_get_indexed_type(ptr noundef %75)
  store ptr %76, ptr %15, align 8
  %77 = load ptr, ptr %15, align 8
  %78 = icmp ne ptr %77, null
  br i1 %78, label %79, label %84

79:                                               ; preds = %72
  %80 = load ptr, ptr %15, align 8
  %81 = load ptr, ptr %12, align 8
  store ptr %80, ptr %81, align 8
  %82 = load ptr, ptr %13, align 8
  store ptr null, ptr %82, align 8
  %83 = load ptr, ptr %10, align 8
  store ptr %83, ptr %8, align 8
  br label %126

84:                                               ; preds = %72
  %85 = load ptr, ptr %10, align 8
  %86 = getelementptr inbounds %struct.Expr_, ptr %85, i32 0, i32 0
  %87 = load ptr, ptr %86, align 8
  store ptr %87, ptr %6, align 8
  %88 = load ptr, ptr %6, align 8
  %89 = load i32, ptr %88, align 8
  store i32 %89, ptr %7, align 4
  %90 = load i32, ptr %7, align 4
  %91 = icmp eq i32 %90, 31
  br i1 %91, label %92, label %97

92:                                               ; preds = %84
  %93 = load ptr, ptr %6, align 8
  %94 = getelementptr inbounds %struct.Type_, ptr %93, i32 0, i32 1
  %95 = load ptr, ptr %94, align 8
  %96 = load i32, ptr %95, align 8
  store i32 %96, ptr %7, align 4
  br label %97

97:                                               ; preds = %92, %84
  %98 = load i32, ptr %7, align 4
  %99 = icmp eq i32 %98, 26
  br i1 %99, label %100, label %109

100:                                              ; preds = %97
  %101 = load ptr, ptr %6, align 8
  %102 = getelementptr inbounds %struct.Type_, ptr %101, i32 0, i32 7
  %103 = load ptr, ptr %102, align 8
  %104 = getelementptr inbounds %struct.Decl_, ptr %103, i32 0, i32 3
  %105 = load i64, ptr %104, align 8
  %106 = lshr i64 %105, 15
  %107 = and i64 %106, 1
  %108 = trunc i64 %107 to i1
  br label %109

109:                                              ; preds = %100, %97
  %110 = phi i1 [ false, %97 ], [ %108, %100 ]
  br i1 %110, label %111, label %125

111:                                              ; preds = %109
  %112 = load ptr, ptr %10, align 8
  %113 = load ptr, ptr %10, align 8
  %114 = getelementptr inbounds %struct.Expr_, ptr %113, i32 0, i32 0
  %115 = load ptr, ptr %114, align 8
  %116 = getelementptr inbounds %struct.Type_, ptr %115, i32 0, i32 7
  %117 = load ptr, ptr %116, align 8
  %118 = call ptr @expr_access_inline_member(ptr noundef %112, ptr noundef %117)
  store ptr %118, ptr %16, align 8
  %119 = load ptr, ptr %9, align 8
  %120 = load ptr, ptr %16, align 8
  %121 = load i32, ptr %11, align 4
  %122 = load ptr, ptr %12, align 8
  %123 = load ptr, ptr %13, align 8
  %124 = call ptr @sema_expr_find_index_type_or_overload_for_subscript(ptr noundef %119, ptr noundef %120, i32 noundef %121, ptr noundef %122, ptr noundef %123)
  store ptr %124, ptr %8, align 8
  br label %126

125:                                              ; preds = %109
  store ptr null, ptr %8, align 8
  br label %126

126:                                              ; preds = %125, %111, %79, %59, %41
  %127 = load ptr, ptr %8, align 8
  ret ptr %127
}