; Function Attrs: nounwind uwtable
define internal fastcc noundef ptr @sema_expr_find_index_type_or_overload_for_subscript(ptr noundef %0, ptr noundef %1, i32 noundef %2, ptr nocapture noundef writeonly %3, ptr nocapture noundef writeonly %4) unnamed_addr #0 {
  %cond = icmp eq i32 %2, 3
  br i1 %cond, label %6, label %tailrecurse

tailrecurse:                                      ; preds = %5, %47
  %.tr48 = phi ptr [ %50, %47 ], [ %1, %5 ]
  switch i32 %2, label %.thread [
    i32 2, label %8
    i32 1, label %18
    i32 0, label %7
  ]

6:                                                ; preds = %5
  tail call void (ptr, ...) @error_exit(ptr noundef nonnull @.str.33, ptr noundef nonnull @.str.34, ptr noundef nonnull @__func__.sema_expr_find_index_type_or_overload_for_subscript, ptr noundef nonnull @.str.35, i32 noundef 2515) #14
  unreachable

7:                                                ; preds = %tailrecurse
  br label %18

8:                                                ; preds = %tailrecurse
  %9 = load ptr, ptr %.tr48, align 8
  %10 = tail call ptr @sema_find_operator(ptr noundef %0, ptr noundef %9, i32 noundef 3) #13
  %.not = icmp eq ptr %10, null
  br i1 %.not, label %.thread, label %11

11:                                               ; preds = %8
  store ptr %10, ptr %4, align 8
  %12 = getelementptr inbounds i8, ptr %10, i64 104
  %13 = load ptr, ptr %12, align 8
  %14 = getelementptr inbounds i8, ptr %13, i64 16
  %15 = load ptr, ptr %14, align 8
  %16 = getelementptr inbounds i8, ptr %15, i64 72
  %17 = load ptr, ptr %16, align 8
  store ptr %17, ptr %3, align 8
  br label %.critedge

18:                                               ; preds = %tailrecurse, %7
  %.sink68 = phi i32 [ 1, %7 ], [ 2, %tailrecurse ]
  %19 = load ptr, ptr %.tr48, align 8
  %20 = tail call ptr @sema_find_operator(ptr noundef %0, ptr noundef %19, i32 noundef %.sink68) #13
  %.not43 = icmp eq ptr %20, null
  br i1 %.not43, label %.thread, label %21

21:                                               ; preds = %18
  store ptr %20, ptr %4, align 8
  %22 = getelementptr inbounds i8, ptr %20, i64 96
  %23 = load i32, ptr %22, align 8
  %24 = load ptr, ptr @type_info_arena, align 8
  %25 = zext i32 %23 to i64
  %26 = getelementptr inbounds %struct.TypeInfo_, ptr %24, i64 %25, i32 1
  %27 = load ptr, ptr %26, align 8
  store ptr %27, ptr %3, align 8
  br label %.critedge

.thread:                                          ; preds = %8, %tailrecurse, %18
  %28 = load ptr, ptr %.tr48, align 8
  %29 = tail call ptr @type_get_indexed_type(ptr noundef %28) #13
  %.not44 = icmp eq ptr %29, null
  br i1 %.not44, label %31, label %30

30:                                               ; preds = %.thread
  store ptr %29, ptr %3, align 8
  store ptr null, ptr %4, align 8
  br label %.critedge

31:                                               ; preds = %.thread
  %32 = load ptr, ptr %.tr48, align 8
  %33 = load i32, ptr %32, align 8
  %34 = icmp eq i32 %33, 31
  br i1 %34, label %35, label %39

35:                                               ; preds = %31
  %36 = getelementptr inbounds i8, ptr %32, i64 8
  %37 = load ptr, ptr %36, align 8
  %38 = load i32, ptr %37, align 8
  br label %39

39:                                               ; preds = %35, %31
  %.0 = phi i32 [ %38, %35 ], [ %33, %31 ]
  %40 = icmp eq i32 %.0, 26
  br i1 %40, label %41, label %.critedge

41:                                               ; preds = %39
  %42 = getelementptr inbounds i8, ptr %32, i64 56
  %43 = load ptr, ptr %42, align 8
  %44 = getelementptr inbounds i8, ptr %43, i64 24
  %45 = load i64, ptr %44, align 8
  %46 = and i64 %45, 32768
  %.not45 = icmp eq i64 %46, 0
  br i1 %.not45, label %.critedge, label %47

47:                                               ; preds = %41
  %48 = getelementptr inbounds i8, ptr %.tr48, i64 8
  %49 = load i64, ptr %48, align 8
  %50 = tail call ptr @expr_new(i32 noundef 1, i64 %49) #13
  %51 = getelementptr inbounds i8, ptr %50, i64 16
  %52 = load i16, ptr %51, align 8
  %53 = and i16 %52, -3841
  %54 = or disjoint i16 %53, 512
  store i16 %54, ptr %51, align 8
  %55 = getelementptr inbounds i8, ptr %50, i64 24
  store ptr %.tr48, ptr %55, align 8
  %56 = getelementptr inbounds i8, ptr %43, i64 104
  %57 = load ptr, ptr %56, align 8
  %58 = load ptr, ptr %57, align 8
  %59 = getelementptr inbounds i8, ptr %50, i64 32
  store ptr %58, ptr %59, align 8
  %60 = getelementptr inbounds i8, ptr %58, i64 72
  %61 = load ptr, ptr %60, align 8
  store ptr %61, ptr %50, align 8
  br label %tailrecurse

.critedge:                                        ; preds = %41, %39, %30, %21, %11
  %.038 = phi ptr [ %.tr48, %21 ], [ %.tr48, %30 ], [ %.tr48, %11 ], [ null, %39 ], [ null, %41 ]
  ret ptr %.038
}